target datalayout = "e-m:e-p270:32:32-p271:32:32-p272:64:64-i64:64-i128:128-f80:128-n8:16:32:64-S128"
target triple = "x86_64-unknown-linux-gnu"

%class.b3Vector3 = type { %union.anon }
%union.anon = type { [4 x float] }
%struct.b3DynamicBvhBroadphase = type <{ ptr, [2 x %struct.b3DynamicBvh], [3 x ptr], %class.b3AlignedObjectArray.4, ptr, float, i32, i32, i32, i32, i32, i32, i32, i32, float, i32, i32, i8, i8, i8, [5 x i8] }>
%struct.b3DynamicBvh = type { ptr, ptr, i32, i32, i32, [4 x i8], %class.b3AlignedObjectArray, %class.b3AlignedObjectArray.0 }
%class.b3AlignedObjectArray = type <{ %class.b3AlignedAllocator, [3 x i8], i32, i32, [4 x i8], ptr, i8, [7 x i8] }>
%class.b3AlignedAllocator = type { i8 }
%class.b3AlignedObjectArray.0 = type <{ %class.b3AlignedAllocator.1, [3 x i8], i32, i32, [4 x i8], ptr, i8, [7 x i8] }>
%class.b3AlignedAllocator.1 = type { i8 }
%class.b3AlignedObjectArray.4 = type <{ %class.b3AlignedAllocator.5, [3 x i8], i32, i32, [4 x i8], ptr, i8, [7 x i8] }>
%class.b3AlignedAllocator.5 = type { i8 }
%struct.b3DbvtAabbMm = type { %class.b3Vector3, %class.b3Vector3 }
%"struct.b3DynamicBvh::ICollide" = type { ptr }
%struct.BroadphaseAabbTester = type { %"struct.b3DynamicBvh::ICollide", ptr }

; Function Attrs: mustprogress nounwind uwtable
define linkonce_odr dso_local void @_ZN12b3DynamicBvh8ICollideD2Ev(ptr noundef nonnull align 8 dereferenceable(8) %this) unnamed_addr #3 comdat align 2 {
entry:
  %this.addr = alloca ptr, align 8
  store ptr %this, ptr %this.addr, align 8
  ret void
}

; Function Attrs: mustprogress nounwind uwtable
define linkonce_odr dso_local void @_ZN12b3DynamicBvh8ICollideC2Ev(ptr noundef nonnull align 8 dereferenceable(8) %this) unnamed_addr #3 comdat align 2 {
entry:
  %this.addr = alloca ptr, align 8
  store ptr %this, ptr %this.addr, align 8
  %this1 = load ptr, ptr %this.addr, align 8
  store ptr getelementptr inbounds ({ [9 x ptr] }, ptr @_ZTVN12b3DynamicBvh8ICollideE, i32 0, i32 0, i32 2), ptr %this1, align 8
  ret void
}

; Function Attrs: mustprogress nounwind uwtable
define linkonce_odr dso_local void @_ZN20BroadphaseAabbTesterD2Ev(ptr noundef nonnull align 8 dereferenceable(16) %this) unnamed_addr #3 comdat align 2 {
entry:
  %this.addr = alloca ptr, align 8
  store ptr %this, ptr %this.addr, align 8
  %this1 = load ptr, ptr %this.addr, align 8
  call void @_ZN12b3DynamicBvh8ICollideD2Ev(ptr noundef nonnull align 8 dereferenceable(8) %this1) #9
  ret void
}

; Function Attrs: mustprogress nounwind uwtable
define linkonce_odr dso_local void @_ZN12b3DbvtAabbMm6FromMMERK9b3Vector3S2_(ptr noalias sret(%struct.b3DbvtAabbMm) align 16 %agg.result, ptr noundef nonnull align 16 dereferenceable(16) %mi, ptr noundef nonnull align 16 dereferenceable(16) %mx) #3 comdat align 2 {
entry:
  %mi.addr = alloca ptr, align 8
  %mx.addr = alloca ptr, align 8
  store ptr %mi, ptr %mi.addr, align 8
  store ptr %mx, ptr %mx.addr, align 8
  %0 = load ptr, ptr %mi.addr, align 8
  %mi1 = getelementptr inbounds %struct.b3DbvtAabbMm, ptr %agg.result, i32 0, i32 0
  call void @llvm.memcpy.p0.p0.i64(ptr align 16 %mi1, ptr align 16 %0, i64 16, i1 false)
  %1 = load ptr, ptr %mx.addr, align 8
  %mx2 = getelementptr inbounds %struct.b3DbvtAabbMm, ptr %agg.result, i32 0, i32 1
  call void @llvm.memcpy.p0.p0.i64(ptr align 16 %mx2, ptr align 16 %1, i64 16, i1 false)
  ret void
}

; Function Attrs: mustprogress nounwind uwtable
define linkonce_odr dso_local void @_ZN20BroadphaseAabbTesterC2ER24b3BroadphaseAabbCallback(ptr noundef nonnull align 8 dereferenceable(16) %this, ptr noundef nonnull align 8 dereferenceable(8) %orgCallback) unnamed_addr #3 comdat align 2 {
entry:
  %this.addr = alloca ptr, align 8
  %orgCallback.addr = alloca ptr, align 8
  store ptr %this, ptr %this.addr, align 8
  store ptr %orgCallback, ptr %orgCallback.addr, align 8
  %this1 = load ptr, ptr %this.addr, align 8
  call void @_ZN12b3DynamicBvh8ICollideC2Ev(ptr noundef nonnull align 8 dereferenceable(8) %this1) #9
  store ptr getelementptr inbounds ({ [9 x ptr] }, ptr @_ZTV20BroadphaseAabbTester, i32 0, i32 0, i32 2), ptr %this1, align 8
  %m_aabbCallback = getelementptr inbounds %struct.BroadphaseAabbTester, ptr %this1, i32 0, i32 1
  %0 = load ptr, ptr %orgCallback.addr, align 8
  store ptr %0, ptr %m_aabbCallback, align 8
  ret void
}

; Function Attrs: mustprogress uwtable
define dso_local void @_ZN22b3DynamicBvhBroadphase8aabbTestERK9b3Vector3S2_R24b3BroadphaseAabbCallback(ptr noundef nonnull align 8 dereferenceable(315) %this, ptr noundef nonnull align 16 dereferenceable(16) %aabbMin, ptr noundef nonnull align 16 dereferenceable(16) %aabbMax, ptr noundef nonnull align 8 dereferenceable(8) %aabbCallback) unnamed_addr #0 align 2 personality ptr @__gxx_personality_v0 {
entry:
  %this.addr = alloca ptr, align 8
  %aabbMin.addr = alloca ptr, align 8
  %aabbMax.addr = alloca ptr, align 8
  %aabbCallback.addr = alloca ptr, align 8
  %callback = alloca %struct.BroadphaseAabbTester, align 8
  %bounds = alloca %struct.b3DbvtAabbMm, align 16
  %exn.slot = alloca ptr, align 8
  %ehselector.slot = alloca i32, align 4
  store ptr %this, ptr %this.addr, align 8
  store ptr %aabbMin, ptr %aabbMin.addr, align 8
  store ptr %aabbMax, ptr %aabbMax.addr, align 8
  store ptr %aabbCallback, ptr %aabbCallback.addr, align 8
  %this1 = load ptr, ptr %this.addr, align 8
  %0 = load ptr, ptr %aabbCallback.addr, align 8
  call void @_ZN20BroadphaseAabbTesterC2ER24b3BroadphaseAabbCallback(ptr noundef nonnull align 8 dereferenceable(16) %callback, ptr noundef nonnull align 8 dereferenceable(8) %0)
  %1 = load ptr, ptr %aabbMin.addr, align 8
  %2 = load ptr, ptr %aabbMax.addr, align 8
  invoke void @_ZN12b3DbvtAabbMm6FromMMERK9b3Vector3S2_(ptr sret(%struct.b3DbvtAabbMm) align 16 %bounds, ptr noundef nonnull align 16 dereferenceable(16) %1, ptr noundef nonnull align 16 dereferenceable(16) %2)
          to label %invoke.cont unwind label %lpad

invoke.cont:                                      ; preds = %entry
  %m_sets = getelementptr inbounds %struct.b3DynamicBvhBroadphase, ptr %this1, i32 0, i32 1
  %arrayidx = getelementptr inbounds [2 x %struct.b3DynamicBvh], ptr %m_sets, i64 0, i64 0
  %m_sets2 = getelementptr inbounds %struct.b3DynamicBvhBroadphase, ptr %this1, i32 0, i32 1
  %arrayidx3 = getelementptr inbounds [2 x %struct.b3DynamicBvh], ptr %m_sets2, i64 0, i64 0
  %m_root = getelementptr inbounds %struct.b3DynamicBvh, ptr %arrayidx3, i32 0, i32 0
  %3 = load ptr, ptr %m_root, align 8
  invoke void @_ZNK12b3DynamicBvh9collideTVEPK10b3DbvtNodeRK12b3DbvtAabbMmRNS_8ICollideE(ptr noundef nonnull align 8 dereferenceable(96) %arrayidx, ptr noundef %3, ptr noundef nonnull align 16 dereferenceable(32) %bounds, ptr noundef nonnull align 8 dereferenceable(8) %callback)
          to label %invoke.cont4 unwind label %lpad

invoke.cont4:                                     ; preds = %invoke.cont
  %m_sets5 = getelementptr inbounds %struct.b3DynamicBvhBroadphase, ptr %this1, i32 0, i32 1
  %arrayidx6 = getelementptr inbounds [2 x %struct.b3DynamicBvh], ptr %m_sets5, i64 0, i64 1
  %m_sets7 = getelementptr inbounds %struct.b3DynamicBvhBroadphase, ptr %this1, i32 0, i32 1
  %arrayidx8 = getelementptr inbounds [2 x %struct.b3DynamicBvh], ptr %m_sets7, i64 0, i64 1
  %m_root9 = getelementptr inbounds %struct.b3DynamicBvh, ptr %arrayidx8, i32 0, i32 0
  %4 = load ptr, ptr %m_root9, align 8
  invoke void @_ZNK12b3DynamicBvh9collideTVEPK10b3DbvtNodeRK12b3DbvtAabbMmRNS_8ICollideE(ptr noundef nonnull align 8 dereferenceable(96) %arrayidx6, ptr noundef %4, ptr noundef nonnull align 16 dereferenceable(32) %bounds, ptr noundef nonnull align 8 dereferenceable(8) %callback)
          to label %invoke.cont10 unwind label %lpad

invoke.cont10:                                    ; preds = %invoke.cont4
  call void @_ZN20BroadphaseAabbTesterD2Ev(ptr noundef nonnull align 8 dereferenceable(16) %callback) #9
  ret void

lpad:                                             ; preds = %invoke.cont4, %invoke.cont, %entry
  %5 = landingpad { ptr, i32 }
          cleanup
  %6 = extractvalue { ptr, i32 } %5, 0
  store ptr %6, ptr %exn.slot, align 8
  %7 = extractvalue { ptr, i32 } %5, 1
  store i32 %7, ptr %ehselector.slot, align 4
  call void @_ZN20BroadphaseAabbTesterD2Ev(ptr noundef nonnull align 8 dereferenceable(16) %callback) #9
  br label %eh.resume

eh.resume:                                        ; preds = %lpad
  %exn = load ptr, ptr %exn.slot, align 8
  %sel = load i32, ptr %ehselector.slot, align 4
  %lpad.val = insertvalue { ptr, i32 } poison, ptr %exn, 0
  %lpad.val11 = insertvalue { ptr, i32 } %lpad.val, i32 %sel, 1
  resume { ptr, i32 } %lpad.val11
}