; Function Attrs: mustprogress uwtable
define dso_local void @_ZN22b3DynamicBvhBroadphase8aabbTestERK9b3Vector3S2_R24b3BroadphaseAabbCallback(ptr noundef nonnull align 8 dereferenceable(315) %this, ptr nocapture noundef nonnull readonly align 16 dereferenceable(16) %aabbMin, ptr nocapture noundef nonnull readonly align 16 dereferenceable(16) %aabbMax, ptr noundef nonnull align 8 dereferenceable(8) %aabbCallback) unnamed_addr #0 align 2 personality ptr @__gxx_personality_v0 {
entry:
  %callback = alloca %struct.BroadphaseAabbTester, align 8
  %bounds = alloca %struct.b3DbvtAabbMm, align 16
  store ptr getelementptr inbounds ({ [9 x ptr] }, ptr @_ZTV20BroadphaseAabbTester, i64 0, i32 0, i64 2), ptr %callback, align 8
  %m_aabbCallback.i = getelementptr inbounds i8, ptr %callback, i64 8
  store ptr %aabbCallback, ptr %m_aabbCallback.i, align 8
  call void @llvm.memcpy.p0.p0.i64(ptr noundef nonnull align 16 dereferenceable(16) %bounds, ptr noundef nonnull align 16 dereferenceable(16) %aabbMin, i64 16, i1 false)
  %mx2.i = getelementptr inbounds i8, ptr %bounds, i64 16
  call void @llvm.memcpy.p0.p0.i64(ptr noundef nonnull align 16 dereferenceable(16) %mx2.i, ptr noundef nonnull align 16 dereferenceable(16) %aabbMax, i64 16, i1 false)
  %m_sets = getelementptr inbounds i8, ptr %this, i64 8
  %0 = load ptr, ptr %m_sets, align 8
  call void @_ZNK12b3DynamicBvh9collideTVEPK10b3DbvtNodeRK12b3DbvtAabbMmRNS_8ICollideE(ptr noundef nonnull align 8 dereferenceable(96) %m_sets, ptr noundef %0, ptr noundef nonnull align 16 dereferenceable(32) %bounds, ptr noundef nonnull align 8 dereferenceable(8) %callback)
  %arrayidx6 = getelementptr inbounds i8, ptr %this, i64 104
  %1 = load ptr, ptr %arrayidx6, align 8
  call void @_ZNK12b3DynamicBvh9collideTVEPK10b3DbvtNodeRK12b3DbvtAabbMmRNS_8ICollideE(ptr noundef nonnull align 8 dereferenceable(96) %arrayidx6, ptr noundef %1, ptr noundef nonnull align 16 dereferenceable(32) %bounds, ptr noundef nonnull align 8 dereferenceable(8) %callback)
  ret void
}